target datalayout = "e-m:e-p270:32:32-p271:32:32-p272:64:64-i64:64-i128:128-f80:128-n8:16:32:64-S128"
target triple = "x86_64-pc-linux-gnu"

%"struct.llvm::LaneBitmask" = type { i64 }
%"class.llvm::MCRegister" = type { i32 }
%"struct.llvm::rdf::PhysicalRegisterInfo" = type { ptr, %"struct.llvm::rdf::IndexedSet", %"class.std::vector.0", %"class.std::vector.5", %"class.std::vector.10", %"class.std::vector.15" }
%"struct.llvm::rdf::IndexedSet" = type { %"class.std::vector" }
%"class.std::vector" = type { %"struct.std::_Vector_base" }
%"struct.std::_Vector_base" = type { %"struct.std::_Vector_base<const unsigned int *, std::allocator<const unsigned int *>>::_Vector_impl" }
%"struct.std::_Vector_base<const unsigned int *, std::allocator<const unsigned int *>>::_Vector_impl" = type { %"struct.std::_Vector_base<const unsigned int *, std::allocator<const unsigned int *>>::_Vector_impl_data" }
%"struct.std::_Vector_base<const unsigned int *, std::allocator<const unsigned int *>>::_Vector_impl_data" = type { ptr, ptr, ptr }
%"class.std::vector.0" = type { %"struct.std::_Vector_base.1" }
%"struct.std::_Vector_base.1" = type { %"struct.std::_Vector_base<llvm::rdf::PhysicalRegisterInfo::RegInfo, std::allocator<llvm::rdf::PhysicalRegisterInfo::RegInfo>>::_Vector_impl" }
%"struct.std::_Vector_base<llvm::rdf::PhysicalRegisterInfo::RegInfo, std::allocator<llvm::rdf::PhysicalRegisterInfo::RegInfo>>::_Vector_impl" = type { %"struct.std::_Vector_base<llvm::rdf::PhysicalRegisterInfo::RegInfo, std::allocator<llvm::rdf::PhysicalRegisterInfo::RegInfo>>::_Vector_impl_data" }
%"struct.std::_Vector_base<llvm::rdf::PhysicalRegisterInfo::RegInfo, std::allocator<llvm::rdf::PhysicalRegisterInfo::RegInfo>>::_Vector_impl_data" = type { ptr, ptr, ptr }
%"class.std::vector.5" = type { %"struct.std::_Vector_base.6" }
%"struct.std::_Vector_base.6" = type { %"struct.std::_Vector_base<llvm::rdf::PhysicalRegisterInfo::UnitInfo, std::allocator<llvm::rdf::PhysicalRegisterInfo::UnitInfo>>::_Vector_impl" }
%"struct.std::_Vector_base<llvm::rdf::PhysicalRegisterInfo::UnitInfo, std::allocator<llvm::rdf::PhysicalRegisterInfo::UnitInfo>>::_Vector_impl" = type { %"struct.std::_Vector_base<llvm::rdf::PhysicalRegisterInfo::UnitInfo, std::allocator<llvm::rdf::PhysicalRegisterInfo::UnitInfo>>::_Vector_impl_data" }
%"struct.std::_Vector_base<llvm::rdf::PhysicalRegisterInfo::UnitInfo, std::allocator<llvm::rdf::PhysicalRegisterInfo::UnitInfo>>::_Vector_impl_data" = type { ptr, ptr, ptr }
%"class.std::vector.10" = type { %"struct.std::_Vector_base.11" }
%"struct.std::_Vector_base.11" = type { %"struct.std::_Vector_base<llvm::rdf::PhysicalRegisterInfo::MaskInfo, std::allocator<llvm::rdf::PhysicalRegisterInfo::MaskInfo>>::_Vector_impl" }
%"struct.std::_Vector_base<llvm::rdf::PhysicalRegisterInfo::MaskInfo, std::allocator<llvm::rdf::PhysicalRegisterInfo::MaskInfo>>::_Vector_impl" = type { %"struct.std::_Vector_base<llvm::rdf::PhysicalRegisterInfo::MaskInfo, std::allocator<llvm::rdf::PhysicalRegisterInfo::MaskInfo>>::_Vector_impl_data" }
%"struct.std::_Vector_base<llvm::rdf::PhysicalRegisterInfo::MaskInfo, std::allocator<llvm::rdf::PhysicalRegisterInfo::MaskInfo>>::_Vector_impl_data" = type { ptr, ptr, ptr }
%"class.std::vector.15" = type { %"struct.std::_Vector_base.16" }
%"struct.std::_Vector_base.16" = type { %"struct.std::_Vector_base<llvm::rdf::PhysicalRegisterInfo::AliasInfo, std::allocator<llvm::rdf::PhysicalRegisterInfo::AliasInfo>>::_Vector_impl" }
%"struct.std::_Vector_base<llvm::rdf::PhysicalRegisterInfo::AliasInfo, std::allocator<llvm::rdf::PhysicalRegisterInfo::AliasInfo>>::_Vector_impl" = type { %"struct.std::_Vector_base<llvm::rdf::PhysicalRegisterInfo::AliasInfo, std::allocator<llvm::rdf::PhysicalRegisterInfo::AliasInfo>>::_Vector_impl_data" }
%"struct.std::_Vector_base<llvm::rdf::PhysicalRegisterInfo::AliasInfo, std::allocator<llvm::rdf::PhysicalRegisterInfo::AliasInfo>>::_Vector_impl_data" = type { ptr, ptr, ptr }
%"struct.llvm::rdf::PhysicalRegisterInfo::RegInfo" = type { ptr }
%"class.llvm::TargetRegisterClass" = type { ptr, ptr, ptr, %"struct.llvm::LaneBitmask", i8, i8, i8, i8, i8, ptr, ptr }
%"struct.llvm::rdf::RegisterRef" = type { i32, %"struct.llvm::LaneBitmask" }

; Function Attrs: mustprogress nounwind uwtable
define linkonce_odr hidden noundef zeroext i1 @_ZN4llvm10MCRegister18isPhysicalRegisterEj(i32 noundef %0) #0 comdat align 2 {
  %2 = alloca i32, align 4
  store i32 %0, ptr %2, align 4
  %3 = load i32, ptr %2, align 4
  %4 = icmp ule i32 1, %3
  br i1 %4, label %5, label %8

5:                                                ; preds = %1
  %6 = load i32, ptr %2, align 4
  %7 = icmp ult i32 %6, 1073741824
  br label %8

8:                                                ; preds = %5, %1
  %9 = phi i1 [ false, %1 ], [ %7, %5 ]
  ret i1 %9
}

; Function Attrs: mustprogress nounwind uwtable
define linkonce_odr hidden noundef zeroext i1 @_ZN4llvm8Register18isPhysicalRegisterEj(i32 noundef %0) #0 comdat align 2 {
  %2 = alloca i32, align 4
  store i32 %0, ptr %2, align 4
  %3 = load i32, ptr %2, align 4
  %4 = call noundef zeroext i1 @_ZN4llvm10MCRegister18isPhysicalRegisterEj(i32 noundef %3)
  ret i1 %4
}

; Function Attrs: mustprogress nounwind uwtable
define linkonce_odr hidden i64 @_ZNK4llvm11LaneBitmaskcoEv(ptr noundef nonnull align 8 dereferenceable(8) %0) #0 comdat align 2 {
  %2 = alloca %"struct.llvm::LaneBitmask", align 8
  %3 = alloca ptr, align 8
  store ptr %0, ptr %3, align 8
  %4 = load ptr, ptr %3, align 8
  %5 = getelementptr inbounds nuw %"struct.llvm::LaneBitmask", ptr %4, i32 0, i32 0
  %6 = load i64, ptr %5, align 8
  %7 = xor i64 %6, -1
  call void @_ZN4llvm11LaneBitmaskC2Em(ptr noundef nonnull align 8 dereferenceable(8) %2, i64 noundef %7)
  %8 = getelementptr inbounds nuw %"struct.llvm::LaneBitmask", ptr %2, i32 0, i32 0
  %9 = load i64, ptr %8, align 8
  ret i64 %9
}

; Function Attrs: mustprogress nounwind uwtable
define linkonce_odr hidden void @_ZN4llvm11LaneBitmaskC2Em(ptr noundef nonnull align 8 dereferenceable(8) %0, i64 noundef %1) unnamed_addr #0 comdat align 2 {
  %3 = alloca ptr, align 8
  %4 = alloca i64, align 8
  store ptr %0, ptr %3, align 8
  store i64 %1, ptr %4, align 8
  %5 = load ptr, ptr %3, align 8
  %6 = getelementptr inbounds nuw %"struct.llvm::LaneBitmask", ptr %5, i32 0, i32 0
  %7 = load i64, ptr %4, align 8
  store i64 %7, ptr %6, align 8
  ret void
}

; Function Attrs: mustprogress nounwind uwtable
define linkonce_odr hidden i64 @_ZN4llvm11LaneBitmask7getNoneEv() #0 comdat align 2 {
  %1 = alloca %"struct.llvm::LaneBitmask", align 8
  call void @_ZN4llvm11LaneBitmaskC2Em(ptr noundef nonnull align 8 dereferenceable(8) %1, i64 noundef 0)
  %2 = getelementptr inbounds nuw %"struct.llvm::LaneBitmask", ptr %1, i32 0, i32 0
  %3 = load i64, ptr %2, align 8
  ret i64 %3
}

; Function Attrs: mustprogress nounwind uwtable
define linkonce_odr hidden noundef zeroext i1 @_ZN4llvm3rdf11RegisterRef7isRegIdEj(i32 noundef %0) #0 comdat align 2 {
  %2 = alloca i32, align 4
  store i32 %0, ptr %2, align 4
  %3 = load i32, ptr %2, align 4
  %4 = call noundef zeroext i1 @_ZN4llvm8Register18isPhysicalRegisterEj(i32 noundef %3)
  ret i1 %4
}

; Function Attrs: mustprogress nounwind uwtable
define linkonce_odr hidden i64 @_ZNK4llvm11LaneBitmaskanES0_(ptr noundef nonnull align 8 dereferenceable(8) %0, i64 %1) #0 comdat align 2 {
  %3 = alloca %"struct.llvm::LaneBitmask", align 8
  %4 = alloca %"struct.llvm::LaneBitmask", align 8
  %5 = alloca ptr, align 8
  %6 = getelementptr inbounds nuw %"struct.llvm::LaneBitmask", ptr %4, i32 0, i32 0
  store i64 %1, ptr %6, align 8
  store ptr %0, ptr %5, align 8
  %7 = load ptr, ptr %5, align 8
  %8 = getelementptr inbounds nuw %"struct.llvm::LaneBitmask", ptr %7, i32 0, i32 0
  %9 = load i64, ptr %8, align 8
  %10 = getelementptr inbounds nuw %"struct.llvm::LaneBitmask", ptr %4, i32 0, i32 0
  %11 = load i64, ptr %10, align 8
  %12 = and i64 %9, %11
  call void @_ZN4llvm11LaneBitmaskC2Em(ptr noundef nonnull align 8 dereferenceable(8) %3, i64 noundef %12)
  %13 = getelementptr inbounds nuw %"struct.llvm::LaneBitmask", ptr %3, i32 0, i32 0
  %14 = load i64, ptr %13, align 8
  ret i64 %14
}

; Function Attrs: mustprogress nounwind uwtable
define linkonce_odr hidden i64 @_ZNK4llvm18TargetRegisterInfo33reverseComposeSubRegIndexLaneMaskEjNS_11LaneBitmaskE(ptr noundef nonnull align 8 dereferenceable(308) %0, i32 noundef %1, i64 %2) #0 comdat align 2 {
  %4 = alloca %"struct.llvm::LaneBitmask", align 8
  %5 = alloca %"struct.llvm::LaneBitmask", align 8
  %6 = alloca ptr, align 8
  %7 = alloca i32, align 4
  %8 = alloca %"struct.llvm::LaneBitmask", align 8
  %9 = getelementptr inbounds nuw %"struct.llvm::LaneBitmask", ptr %5, i32 0, i32 0
  store i64 %2, ptr %9, align 8
  store ptr %0, ptr %6, align 8
  store i32 %1, ptr %7, align 4
  %10 = load ptr, ptr %6, align 8
  %11 = load i32, ptr %7, align 4
  %12 = icmp ne i32 %11, 0
  br i1 %12, label %14, label %13

13:                                               ; preds = %3
  call void @llvm.memcpy.p0.p0.i64(ptr align 8 %4, ptr align 8 %5, i64 8, i1 false)
  br label %23

14:                                               ; preds = %3
  %15 = load i32, ptr %7, align 4
  call void @llvm.memcpy.p0.p0.i64(ptr align 8 %8, ptr align 8 %5, i64 8, i1 false)
  %16 = getelementptr inbounds nuw %"struct.llvm::LaneBitmask", ptr %8, i32 0, i32 0
  %17 = load i64, ptr %16, align 8
  %18 = load ptr, ptr %10, align 8
  %19 = getelementptr inbounds ptr, ptr %18, i64 34
  %20 = load ptr, ptr %19, align 8
  %21 = call i64 %20(ptr noundef nonnull align 8 dereferenceable(308) %10, i32 noundef %15, i64 %17)
  %22 = getelementptr inbounds nuw %"struct.llvm::LaneBitmask", ptr %4, i32 0, i32 0
  store i64 %21, ptr %22, align 8
  br label %23

23:                                               ; preds = %14, %13
  %24 = getelementptr inbounds nuw %"struct.llvm::LaneBitmask", ptr %4, i32 0, i32 0
  %25 = load i64, ptr %24, align 8
  ret i64 %25
}

; Function Attrs: mustprogress nounwind uwtable
define linkonce_odr hidden i64 @_ZN4llvm11LaneBitmask6getAllEv() #0 comdat align 2 {
  %1 = alloca %"struct.llvm::LaneBitmask", align 8
  %2 = alloca %"struct.llvm::LaneBitmask", align 8
  call void @_ZN4llvm11LaneBitmaskC2Em(ptr noundef nonnull align 8 dereferenceable(8) %2, i64 noundef 0)
  %3 = call i64 @_ZNK4llvm11LaneBitmaskcoEv(ptr noundef nonnull align 8 dereferenceable(8) %2)
  %4 = getelementptr inbounds nuw %"struct.llvm::LaneBitmask", ptr %1, i32 0, i32 0
  store i64 %3, ptr %4, align 8
  %5 = getelementptr inbounds nuw %"struct.llvm::LaneBitmask", ptr %1, i32 0, i32 0
  %6 = load i64, ptr %5, align 8
  ret i64 %6
}

; Function Attrs: mustprogress nounwind uwtable
define linkonce_odr hidden noundef nonnull align 8 dereferenceable(8) ptr @_ZNKSt6vectorIN4llvm3rdf20PhysicalRegisterInfo7RegInfoESaIS3_EEixEm(ptr noundef nonnull align 8 dereferenceable(24) %0, i64 noundef %1) #0 comdat align 2 {
  %3 = alloca ptr, align 8
  %4 = alloca i64, align 8
  store ptr %0, ptr %3, align 8
  store i64 %1, ptr %4, align 8
  %5 = load ptr, ptr %3, align 8
  %6 = getelementptr inbounds nuw %"struct.std::_Vector_base.1", ptr %5, i32 0, i32 0
  %7 = getelementptr inbounds nuw %"struct.std::_Vector_base<llvm::rdf::PhysicalRegisterInfo::RegInfo, std::allocator<llvm::rdf::PhysicalRegisterInfo::RegInfo>>::_Vector_impl_data", ptr %6, i32 0, i32 0
  %8 = load ptr, ptr %7, align 8
  %9 = load i64, ptr %4, align 8
  %10 = getelementptr inbounds %"struct.llvm::rdf::PhysicalRegisterInfo::RegInfo", ptr %8, i64 %9
  ret ptr %10
}

; Function Attrs: mustprogress nounwind uwtable
define linkonce_odr hidden void @_ZN4llvm3rdf11RegisterRefC2EjNS_11LaneBitmaskE(ptr noundef nonnull align 8 dereferenceable(16) %0, i32 noundef %1, i64 %2) unnamed_addr #0 comdat align 2 {
  %4 = alloca %"struct.llvm::LaneBitmask", align 8
  %5 = alloca ptr, align 8
  %6 = alloca i32, align 4
  %7 = getelementptr inbounds nuw %"struct.llvm::LaneBitmask", ptr %4, i32 0, i32 0
  store i64 %2, ptr %7, align 8
  store ptr %0, ptr %5, align 8
  store i32 %1, ptr %6, align 4
  %8 = load ptr, ptr %5, align 8
  %9 = getelementptr inbounds nuw %"struct.llvm::rdf::RegisterRef", ptr %8, i32 0, i32 0
  %10 = load i32, ptr %6, align 4
  store i32 %10, ptr %9, align 8
  %11 = getelementptr inbounds nuw %"struct.llvm::rdf::RegisterRef", ptr %8, i32 0, i32 1
  %12 = load i32, ptr %6, align 4
  %13 = call noundef zeroext i1 @_ZN4llvm3rdf11RegisterRef7isRegIdEj(i32 noundef %12)
  br i1 %13, label %14, label %18

14:                                               ; preds = %3
  %15 = load i32, ptr %6, align 4
  %16 = icmp ne i32 %15, 0
  br i1 %16, label %17, label %18

17:                                               ; preds = %14
  call void @llvm.memcpy.p0.p0.i64(ptr align 8 %11, ptr align 8 %4, i64 8, i1 false)
  br label %21

18:                                               ; preds = %14, %3
  %19 = call i64 @_ZN4llvm11LaneBitmask7getNoneEv()
  %20 = getelementptr inbounds nuw %"struct.llvm::LaneBitmask", ptr %11, i32 0, i32 0
  store i64 %19, ptr %20, align 8
  br label %21

21:                                               ; preds = %18, %17
  ret void
}

; Function Attrs: mustprogress nounwind uwtable
define linkonce_odr hidden i64 @_ZNK4llvm18TargetRegisterInfo26composeSubRegIndexLaneMaskEjNS_11LaneBitmaskE(ptr noundef nonnull align 8 dereferenceable(308) %0, i32 noundef %1, i64 %2) #0 comdat align 2 {
  %4 = alloca %"struct.llvm::LaneBitmask", align 8
  %5 = alloca %"struct.llvm::LaneBitmask", align 8
  %6 = alloca ptr, align 8
  %7 = alloca i32, align 4
  %8 = alloca %"struct.llvm::LaneBitmask", align 8
  %9 = getelementptr inbounds nuw %"struct.llvm::LaneBitmask", ptr %5, i32 0, i32 0
  store i64 %2, ptr %9, align 8
  store ptr %0, ptr %6, align 8
  store i32 %1, ptr %7, align 4
  %10 = load ptr, ptr %6, align 8
  %11 = load i32, ptr %7, align 4
  %12 = icmp ne i32 %11, 0
  br i1 %12, label %14, label %13

13:                                               ; preds = %3
  call void @llvm.memcpy.p0.p0.i64(ptr align 8 %4, ptr align 8 %5, i64 8, i1 false)
  br label %23

14:                                               ; preds = %3
  %15 = load i32, ptr %7, align 4
  call void @llvm.memcpy.p0.p0.i64(ptr align 8 %8, ptr align 8 %5, i64 8, i1 false)
  %16 = getelementptr inbounds nuw %"struct.llvm::LaneBitmask", ptr %8, i32 0, i32 0
  %17 = load i64, ptr %16, align 8
  %18 = load ptr, ptr %10, align 8
  %19 = getelementptr inbounds ptr, ptr %18, i64 33
  %20 = load ptr, ptr %19, align 8
  %21 = call i64 %20(ptr noundef nonnull align 8 dereferenceable(308) %10, i32 noundef %15, i64 %17)
  %22 = getelementptr inbounds nuw %"struct.llvm::LaneBitmask", ptr %4, i32 0, i32 0
  store i64 %21, ptr %22, align 8
  br label %23

23:                                               ; preds = %14, %13
  %24 = getelementptr inbounds nuw %"struct.llvm::LaneBitmask", ptr %4, i32 0, i32 0
  %25 = load i64, ptr %24, align 8
  ret i64 %25
}

; Function Attrs: mustprogress nounwind uwtable
define linkonce_odr hidden void @_ZN4llvm10MCRegisterC2Ej(ptr noundef nonnull align 4 dereferenceable(4) %0, i32 noundef %1) unnamed_addr #0 comdat align 2 {
  %3 = alloca ptr, align 8
  %4 = alloca i32, align 4
  store ptr %0, ptr %3, align 8
  store i32 %1, ptr %4, align 4
  %5 = load ptr, ptr %3, align 8
  %6 = getelementptr inbounds nuw %"class.llvm::MCRegister", ptr %5, i32 0, i32 0
  %7 = load i32, ptr %4, align 4
  store i32 %7, ptr %6, align 4
  ret void
}

; Function Attrs: mustprogress nounwind uwtable
define dso_local { i32, i64 } @_ZNK4llvm3rdf20PhysicalRegisterInfo5mapToENS0_11RegisterRefEj(ptr noundef nonnull align 8 dereferenceable(128) %0, i32 %1, i64 %2, i32 noundef %3) #0 align 2 {
  %5 = alloca %"struct.llvm::rdf::RegisterRef", align 8
  %6 = alloca %"struct.llvm::rdf::RegisterRef", align 8
  %7 = alloca ptr, align 8
  %8 = alloca i32, align 4
  %9 = alloca i32, align 4
  %10 = alloca %"class.llvm::MCRegister", align 4
  %11 = alloca %"class.llvm::MCRegister", align 4
  %12 = alloca %"struct.llvm::LaneBitmask", align 8
  %13 = alloca %"struct.llvm::LaneBitmask", align 8
  %14 = alloca i32, align 4
  %15 = alloca %"class.llvm::MCRegister", align 4
  %16 = alloca %"class.llvm::MCRegister", align 4
  %17 = alloca ptr, align 8
  %18 = alloca %"struct.llvm::LaneBitmask", align 8
  %19 = alloca %"struct.llvm::LaneBitmask", align 8
  %20 = alloca %"struct.llvm::LaneBitmask", align 8
  %21 = alloca %"struct.llvm::LaneBitmask", align 8
  %22 = alloca %"struct.llvm::LaneBitmask", align 8
  %23 = getelementptr inbounds nuw { i32, i64 }, ptr %6, i32 0, i32 0
  store i32 %1, ptr %23, align 8
  %24 = getelementptr inbounds nuw { i32, i64 }, ptr %6, i32 0, i32 1
  store i64 %2, ptr %24, align 8
  store ptr %0, ptr %7, align 8
  store i32 %3, ptr %8, align 4
  %25 = load ptr, ptr %7, align 8
  %26 = getelementptr inbounds nuw %"struct.llvm::rdf::RegisterRef", ptr %6, i32 0, i32 0
  %27 = load i32, ptr %26, align 8
  %28 = load i32, ptr %8, align 4
  %29 = icmp eq i32 %27, %28
  br i1 %29, label %30, label %31

30:                                               ; preds = %4
  call void @llvm.memcpy.p0.p0.i64(ptr align 8 %5, ptr align 8 %6, i64 16, i1 false)
  br label %105

31:                                               ; preds = %4
  %32 = getelementptr inbounds nuw %"struct.llvm::rdf::PhysicalRegisterInfo", ptr %25, i32 0, i32 0
  %33 = load ptr, ptr %32, align 8
  %34 = getelementptr inbounds i8, ptr %33, i64 8
  %35 = load i32, ptr %8, align 4
  call void @_ZN4llvm10MCRegisterC2Ej(ptr noundef nonnull align 4 dereferenceable(4) %10, i32 noundef %35)
  %36 = getelementptr inbounds nuw %"struct.llvm::rdf::RegisterRef", ptr %6, i32 0, i32 0
  %37 = load i32, ptr %36, align 8
  call void @_ZN4llvm10MCRegisterC2Ej(ptr noundef nonnull align 4 dereferenceable(4) %11, i32 noundef %37)
  %38 = getelementptr inbounds nuw %"class.llvm::MCRegister", ptr %10, i32 0, i32 0
  %39 = load i32, ptr %38, align 4
  %40 = getelementptr inbounds nuw %"class.llvm::MCRegister", ptr %11, i32 0, i32 0
  %41 = load i32, ptr %40, align 4
  %42 = call noundef i32 @_ZNK4llvm14MCRegisterInfo14getSubRegIndexENS_10MCRegisterES1_(ptr noundef nonnull align 8 dereferenceable(224) %34, i32 %39, i32 %41)
  store i32 %42, ptr %9, align 4
  %43 = load i32, ptr %9, align 4
  %44 = icmp ne i32 %43, 0
  br i1 %44, label %45, label %57

45:                                               ; preds = %31
  %46 = load i32, ptr %8, align 4
  %47 = getelementptr inbounds nuw %"struct.llvm::rdf::PhysicalRegisterInfo", ptr %25, i32 0, i32 0
  %48 = load ptr, ptr %47, align 8
  %49 = load i32, ptr %9, align 4
  %50 = getelementptr inbounds nuw %"struct.llvm::rdf::RegisterRef", ptr %6, i32 0, i32 1
  call void @llvm.memcpy.p0.p0.i64(ptr align 8 %13, ptr align 8 %50, i64 8, i1 false)
  %51 = getelementptr inbounds nuw %"struct.llvm::LaneBitmask", ptr %13, i32 0, i32 0
  %52 = load i64, ptr %51, align 8
  %53 = call i64 @_ZNK4llvm18TargetRegisterInfo26composeSubRegIndexLaneMaskEjNS_11LaneBitmaskE(ptr noundef nonnull align 8 dereferenceable(308) %48, i32 noundef %49, i64 %52)
  %54 = getelementptr inbounds nuw %"struct.llvm::LaneBitmask", ptr %12, i32 0, i32 0
  store i64 %53, ptr %54, align 8
  %55 = getelementptr inbounds nuw %"struct.llvm::LaneBitmask", ptr %12, i32 0, i32 0
  %56 = load i64, ptr %55, align 8
  call void @_ZN4llvm3rdf11RegisterRefC2EjNS_11LaneBitmaskE(ptr noundef nonnull align 8 dereferenceable(16) %5, i32 noundef %46, i64 %56)
  br label %105

57:                                               ; preds = %31
  %58 = getelementptr inbounds nuw %"struct.llvm::rdf::PhysicalRegisterInfo", ptr %25, i32 0, i32 0
  %59 = load ptr, ptr %58, align 8
  %60 = getelementptr inbounds i8, ptr %59, i64 8
  %61 = getelementptr inbounds nuw %"struct.llvm::rdf::RegisterRef", ptr %6, i32 0, i32 0
  %62 = load i32, ptr %61, align 8
  call void @_ZN4llvm10MCRegisterC2Ej(ptr noundef nonnull align 4 dereferenceable(4) %15, i32 noundef %62)
  %63 = load i32, ptr %8, align 4
  call void @_ZN4llvm10MCRegisterC2Ej(ptr noundef nonnull align 4 dereferenceable(4) %16, i32 noundef %63)
  %64 = getelementptr inbounds nuw %"class.llvm::MCRegister", ptr %15, i32 0, i32 0
  %65 = load i32, ptr %64, align 4
  %66 = getelementptr inbounds nuw %"class.llvm::MCRegister", ptr %16, i32 0, i32 0
  %67 = load i32, ptr %66, align 4
  %68 = call noundef i32 @_ZNK4llvm14MCRegisterInfo14getSubRegIndexENS_10MCRegisterES1_(ptr noundef nonnull align 8 dereferenceable(224) %60, i32 %65, i32 %67)
  store i32 %68, ptr %14, align 4
  %69 = load i32, ptr %14, align 4
  %70 = icmp ne i32 %69, 0
  br i1 %70, label %71, label %104

71:                                               ; preds = %57
  %72 = getelementptr inbounds nuw %"struct.llvm::rdf::PhysicalRegisterInfo", ptr %25, i32 0, i32 2
  %73 = load i32, ptr %8, align 4
  %74 = zext i32 %73 to i64
  %75 = call noundef nonnull align 8 dereferenceable(8) ptr @_ZNKSt6vectorIN4llvm3rdf20PhysicalRegisterInfo7RegInfoESaIS3_EEixEm(ptr noundef nonnull align 8 dereferenceable(24) %72, i64 noundef %74) #10
  store ptr %75, ptr %17, align 8
  %76 = load ptr, ptr %17, align 8
  %77 = getelementptr inbounds nuw %"struct.llvm::rdf::PhysicalRegisterInfo::RegInfo", ptr %76, i32 0, i32 0
  %78 = load ptr, ptr %77, align 8
  %79 = icmp ne ptr %78, null
  br i1 %79, label %80, label %85

80:                                               ; preds = %71
  %81 = load ptr, ptr %17, align 8
  %82 = getelementptr inbounds nuw %"struct.llvm::rdf::PhysicalRegisterInfo::RegInfo", ptr %81, i32 0, i32 0
  %83 = load ptr, ptr %82, align 8
  %84 = getelementptr inbounds nuw %"class.llvm::TargetRegisterClass", ptr %83, i32 0, i32 3
  call void @llvm.memcpy.p0.p0.i64(ptr align 8 %18, ptr align 8 %84, i64 8, i1 false)
  br label %88

85:                                               ; preds = %71
  %86 = call i64 @_ZN4llvm11LaneBitmask6getAllEv()
  %87 = getelementptr inbounds nuw %"struct.llvm::LaneBitmask", ptr %18, i32 0, i32 0
  store i64 %86, ptr %87, align 8
  br label %88

88:                                               ; preds = %85, %80
  %89 = getelementptr inbounds nuw %"struct.llvm::rdf::PhysicalRegisterInfo", ptr %25, i32 0, i32 0
  %90 = load ptr, ptr %89, align 8
  %91 = load i32, ptr %14, align 4
  %92 = getelementptr inbounds nuw %"struct.llvm::rdf::RegisterRef", ptr %6, i32 0, i32 1
  call void @llvm.memcpy.p0.p0.i64(ptr align 8 %20, ptr align 8 %92, i64 8, i1 false)
  %93 = getelementptr inbounds nuw %"struct.llvm::LaneBitmask", ptr %20, i32 0, i32 0
  %94 = load i64, ptr %93, align 8
  %95 = call i64 @_ZNK4llvm18TargetRegisterInfo33reverseComposeSubRegIndexLaneMaskEjNS_11LaneBitmaskE(ptr noundef nonnull align 8 dereferenceable(308) %90, i32 noundef %91, i64 %94)
  %96 = getelementptr inbounds nuw %"struct.llvm::LaneBitmask", ptr %19, i32 0, i32 0
  store i64 %95, ptr %96, align 8
  %97 = load i32, ptr %8, align 4
  call void @llvm.memcpy.p0.p0.i64(ptr align 8 %22, ptr align 8 %18, i64 8, i1 false)
  %98 = getelementptr inbounds nuw %"struct.llvm::LaneBitmask", ptr %22, i32 0, i32 0
  %99 = load i64, ptr %98, align 8
  %100 = call i64 @_ZNK4llvm11LaneBitmaskanES0_(ptr noundef nonnull align 8 dereferenceable(8) %19, i64 %99)
  %101 = getelementptr inbounds nuw %"struct.llvm::LaneBitmask", ptr %21, i32 0, i32 0
  store i64 %100, ptr %101, align 8
  %102 = getelementptr inbounds nuw %"struct.llvm::LaneBitmask", ptr %21, i32 0, i32 0
  %103 = load i64, ptr %102, align 8
  call void @_ZN4llvm3rdf11RegisterRefC2EjNS_11LaneBitmaskE(ptr noundef nonnull align 8 dereferenceable(16) %5, i32 noundef %97, i64 %103)
  br label %105

104:                                              ; preds = %57
  unreachable

105:                                              ; preds = %88, %45, %30
  %106 = load { i32, i64 }, ptr %5, align 8
  ret { i32, i64 } %106
}