; Function Attrs: mustprogress nounwind uwtable
define dso_local { i32, i64 } @_ZNK4llvm3rdf20PhysicalRegisterInfo5mapToENS0_11RegisterRefEj(ptr nocapture noundef nonnull readonly align 8 dereferenceable(128) %0, i32 %1, i64 %2, i32 noundef %3) local_unnamed_addr #0 align 2 {
  %5 = icmp eq i32 %1, %3
  br i1 %5, label %36, label %6

6:                                                ; preds = %4
  %7 = load ptr, ptr %0, align 8
  %8 = getelementptr inbounds i8, ptr %7, i64 8
  %9 = tail call noundef i32 @_ZNK4llvm14MCRegisterInfo14getSubRegIndexENS_10MCRegisterES1_(ptr noundef nonnull align 8 dereferenceable(224) %8, i32 %3, i32 %1) #19
  %.not = icmp eq i32 %9, 0
  %10 = load ptr, ptr %0, align 8
  br i1 %.not, label %17, label %_ZNK4llvm18TargetRegisterInfo26composeSubRegIndexLaneMaskEjNS_11LaneBitmaskE.exit

_ZNK4llvm18TargetRegisterInfo26composeSubRegIndexLaneMaskEjNS_11LaneBitmaskE.exit: ; preds = %6
  %11 = load ptr, ptr %10, align 8
  %12 = getelementptr inbounds i8, ptr %11, i64 264
  %13 = load ptr, ptr %12, align 8
  %14 = tail call i64 %13(ptr noundef nonnull align 8 dereferenceable(308) %10, i32 noundef %9, i64 %2) #19
  %15 = add i32 %3, -1
  %16 = icmp ult i32 %15, 1073741823
  %spec.select.i = select i1 %16, i64 %14, i64 0
  br label %36

17:                                               ; preds = %6
  %18 = getelementptr inbounds i8, ptr %10, i64 8
  %19 = tail call noundef i32 @_ZNK4llvm14MCRegisterInfo14getSubRegIndexENS_10MCRegisterES1_(ptr noundef nonnull align 8 dereferenceable(224) %18, i32 %1, i32 %3) #19
  %20 = icmp ne i32 %19, 0
  tail call void @llvm.assume(i1 %20)
  %21 = getelementptr inbounds nuw i8, ptr %0, i64 32
  %22 = zext i32 %3 to i64
  %23 = load ptr, ptr %21, align 8
  %24 = getelementptr inbounds %"struct.llvm::rdf::PhysicalRegisterInfo::RegInfo", ptr %23, i64 %22
  %25 = load ptr, ptr %24, align 8
  %.not25 = icmp eq ptr %25, null
  br i1 %.not25, label %_ZNK4llvm18TargetRegisterInfo33reverseComposeSubRegIndexLaneMaskEjNS_11LaneBitmaskE.exit, label %26

26:                                               ; preds = %17
  %27 = getelementptr inbounds nuw i8, ptr %25, i64 24
  %.sroa.03.0.copyload = load i64, ptr %27, align 8
  br label %_ZNK4llvm18TargetRegisterInfo33reverseComposeSubRegIndexLaneMaskEjNS_11LaneBitmaskE.exit

_ZNK4llvm18TargetRegisterInfo33reverseComposeSubRegIndexLaneMaskEjNS_11LaneBitmaskE.exit: ; preds = %17, %26
  %.sroa.03.0 = phi i64 [ %.sroa.03.0.copyload, %26 ], [ -1, %17 ]
  %28 = load ptr, ptr %0, align 8
  %29 = load ptr, ptr %28, align 8
  %30 = getelementptr inbounds i8, ptr %29, i64 272
  %31 = load ptr, ptr %30, align 8
  %32 = tail call i64 %31(ptr noundef nonnull align 8 dereferenceable(308) %28, i32 noundef %19, i64 %2) #19
  %33 = and i64 %32, %.sroa.03.0
  %34 = add i32 %3, -1
  %35 = icmp ult i32 %34, 1073741823
  %spec.select.i28 = select i1 %35, i64 %33, i64 0
  br label %36

36:                                               ; preds = %4, %_ZNK4llvm18TargetRegisterInfo33reverseComposeSubRegIndexLaneMaskEjNS_11LaneBitmaskE.exit, %_ZNK4llvm18TargetRegisterInfo26composeSubRegIndexLaneMaskEjNS_11LaneBitmaskE.exit
  %.sroa.033.0 = phi i32 [ %3, %_ZNK4llvm18TargetRegisterInfo33reverseComposeSubRegIndexLaneMaskEjNS_11LaneBitmaskE.exit ], [ %3, %_ZNK4llvm18TargetRegisterInfo26composeSubRegIndexLaneMaskEjNS_11LaneBitmaskE.exit ], [ %1, %4 ]
  %.sroa.4.0 = phi i64 [ %spec.select.i28, %_ZNK4llvm18TargetRegisterInfo33reverseComposeSubRegIndexLaneMaskEjNS_11LaneBitmaskE.exit ], [ %spec.select.i, %_ZNK4llvm18TargetRegisterInfo26composeSubRegIndexLaneMaskEjNS_11LaneBitmaskE.exit ], [ %2, %4 ]
  %.fca.0.insert = insertvalue { i32, i64 } poison, i32 %.sroa.033.0, 0
  %.fca.1.insert = insertvalue { i32, i64 } %.fca.0.insert, i64 %.sroa.4.0, 1
  ret { i32, i64 } %.fca.1.insert
}